Certificate:
    Data:
        Version: 1 (0x0)
        Serial Number: 4096 (0x1000)
        Signature Algorithm: sha256WithRSAEncryption
        Issuer: C=US, ST=CA, O=Apigee, OU=Eng, CN=inter1
        Validity
            Not Before: Jan  8 19:37:45 2016 GMT
            Not After : Jan  5 19:37:45 2026 GMT
        Subject: C=US, ST=CA, L=San Jose, O=Apigee, OU=Eng, CN=client
        Subject Public Key Info:
            Public Key Algorithm: rsaEncryption
            RSA Public Key: (2048 bit)
                Modulus (2048 bit):
                    00:97:7c:7d:92:fc:ff:42:0f:fd:cd:01:d8:1f:26:
                    97:76:c1:1c:7d:da:3e:5f:d6:10:32:8d:e5:df:ab:
                    4c:f4:d4:a2:a6:60:8e:b4:6f:13:a9:51:1d:5a:ee:
                    40:56:36:1f:11:b7:90:c8:84:e9:af:68:e3:0c:d2:
                    2b:70:99:da:f6:9d:88:36:9c:3e:20:3c:74:03:09:
                    bd:73:93:f1:ed:32:51:1a:cf:b7:6f:cd:f6:ee:0b:
                    e3:02:49:36:c2:2b:e0:c0:d1:ef:d9:ad:68:4c:0f:
                    97:46:33:85:b6:bf:e4:bf:3f:97:d3:8a:f0:e1:00:
                    50:9d:91:91:ae:e4:55:58:be:9b:e1:64:d2:a6:48:
                    94:48:0f:33:36:b5:31:1f:c3:e8:1c:4f:44:da:4e:
                    b0:a3:67:a1:bd:fd:13:84:bf:8f:f4:09:53:46:d4:
                    0e:41:d8:b9:ea:1e:50:38:19:53:ab:87:7d:f5:4b:
                    b7:8e:d5:82:b3:06:eb:1f:37:b3:47:8e:03:6a:98:
                    0e:16:f7:3f:26:80:45:ac:53:c6:2a:01:a1:4e:42:
                    7f:3c:98:57:3e:2d:a1:71:00:f7:3b:69:58:e3:15:
                    ad:7e:3c:b1:9d:44:32:12:43:a0:15:2c:48:23:8f:
                    61:16:c8:33:94:e2:ad:e8:ba:3f:07:53:06:2a:8c:
                    c1:bd
                Exponent: 65537 (0x10001)
    Signature Algorithm: sha256WithRSAEncryption
        33:b0:0e:7e:e1:2d:9e:44:28:5a:1c:90:36:e0:b2:88:56:ee:
        2b:81:aa:ee:23:e2:2f:34:18:ff:f2:0d:e0:d4:cc:79:71:23:
        ed:36:2c:53:68:e9:2d:12:f0:44:f2:f5:c3:5b:ef:48:42:39:
        2d:56:17:cc:12:90:6e:92:c4:13:0d:6f:98:80:33:42:83:72:
        c2:ce:80:02:73:c1:f1:0b:bf:f0:31:51:99:b8:ec:a4:11:1a:
        05:21:63:71:98:c9:35:cb:93:fb:a0:ad:95:43:06:2f:40:37:
        86:ac:e4:d7:7d:57:f0:e2:4b:82:42:f8:a6:38:29:2d:c5:91:
        fa:7d:93:72:17:3d:7f:17:40:5a:6b:3d:27:3d:7d:92:dd:5b:
        d6:1d:26:be:cd:a0:8a:ae:57:0d:79:17:c9:32:d1:e5:e7:e3:
        29:d4:f7:5b:5f:4b:25:73:9b:1e:d7:42:13:6d:c8:2c:f6:e8:
        18:46:ff:07:f7:e1:4f:9d:52:1a:8a:09:ae:cb:16:53:1b:08:
        ca:ad:ea:bd:72:f4:f1:66:f8:73:a8:35:54:f1:cc:7d:85:f1:
        eb:61:36:8c:9f:49:33:ca:29:5e:31:ce:71:15:d5:9f:65:f3:
        4f:d7:8a:56:a4:cc:79:40:45:66:07:97:8a:2d:d4:0a:7b:66:
        f2:e8:31:73:6a:1a:88:3d:f2:fb:b5:9b:47:6f:34:50:0b:92:
        7e:50:c5:df:1d:fb:20:28:0d:61:2d:f7:de:95:9f:54:3a:0d:
        f4:91:f7:59:3e:cd:f0:99:87:09:d2:43:5d:65:94:5e:5a:b5:
        f9:b9:5f:2e:33:f6:55:d4:2c:45:a6:5f:f3:a0:4e:3b:34:a3:
        27:aa:36:1f:0e:e7:9f:bd:db:0c:01:08:77:82:24:4d:ca:e5:
        ff:a0:5b:cf:2c:f8:2a:8a:83:83:93:f0:2c:2e:e8:df:ce:97:
        c9:2d:de:07:48:eb:5e:4d:06:80:a5:1a:e0:bc:be:92:08:4f:
        bb:90:e5:8b:7a:d2:64:47:18:25:43:7c:40:d3:02:0e:54:a3:
        1b:9f:a2:1c:ce:d2:f7:6c:35:87:cc:af:9c:f7:84:45:5a:51:
        65:53:30:f2:25:5f:09:da:8a:04:f8:eb:db:de:e1:22:e2:db:
        72:be:09:2c:76:e5:ef:95:0e:6c:9c:cf:98:c8:5a:0a:f0:2d:
        6c:c4:98:0f:fe:12:48:77:8a:38:ad:e8:07:61:da:b5:b9:aa:
        86:76:17:8a:bf:09:e2:2c:85:5e:79:a0:d7:c1:21:66:bb:71:
        0a:cf:40:e1:fe:27:38:10:65:60:8a:88:34:fe:51:8f:c0:f5:
        bc:d3:03:66:3e:77:18:ee
-----BEGIN CERTIFICATE-----
MIIEHDCCAgQCAhAAMA0GCSqGSIb3DQEBCwUAMEoxCzAJBgNVBAYTAlVTMQswCQYD
VQQIDAJDQTEPMA0GA1UECgwGQXBpZ2VlMQwwCgYDVQQLDANFbmcxDzANBgNVBAMM
BmludGVyMTAeFw0xNjAxMDgxOTM3NDVaFw0yNjAxMDUxOTM3NDVaMF0xCzAJBgNV
BAYTAlVTMQswCQYDVQQIDAJDQTERMA8GA1UEBwwIU2FuIEpvc2UxDzANBgNVBAoM
BkFwaWdlZTEMMAoGA1UECwwDRW5nMQ8wDQYDVQQDDAZjbGllbnQwggEiMA0GCSqG
SIb3DQEBAQUAA4IBDwAwggEKAoIBAQCXfH2S/P9CD/3NAdgfJpd2wRx92j5f1hAy
jeXfq0z01KKmYI60bxOpUR1a7kBWNh8Rt5DIhOmvaOMM0itwmdr2nYg2nD4gPHQD
Cb1zk/HtMlEaz7dvzfbuC+MCSTbCK+DA0e/ZrWhMD5dGM4W2v+S/P5fTivDhAFCd
kZGu5FVYvpvhZNKmSJRIDzM2tTEfw+gcT0TaTrCjZ6G9/ROEv4/0CVNG1A5B2Lnq
HlA4GVOrh331S7eO1YKzBusfN7NHjgNqmA4W9z8mgEWsU8YqAaFOQn88mFc+LaFx
APc7aVjjFa1+PLGdRDISQ6AVLEgjj2EWyDOU4q3ouj8HUwYqjMG9AgMBAAEwDQYJ
KoZIhvcNAQELBQADggIBADOwDn7hLZ5EKFockDbgsohW7iuBqu4j4i80GP/yDeDU
zHlxI+02LFNo6S0S8ETy9cNb70hCOS1WF8wSkG6SxBMNb5iAM0KDcsLOgAJzwfEL
v/AxUZm47KQRGgUhY3GYyTXLk/ugrZVDBi9AN4as5Nd9V/DiS4JC+KY4KS3Fkfp9
k3IXPX8XQFprPSc9fZLdW9YdJr7NoIquVw15F8ky0eXn4ynU91tfSyVzmx7XQhNt
yCz26BhG/wf34U+dUhqKCa7LFlMbCMqt6r1y9PFm+HOoNVTxzH2F8ethNoyfSTPK
KV4xznEV1Z9l80/XilakzHlARWYHl4ot1Ap7ZvLoMXNqGog98vu1m0dvNFALkn5Q
xd8d+yAoDWEt996Vn1Q6DfSR91k+zfCZhwnSQ11llF5atfm5Xy4z9lXULEWmX/Og
Tjs0oyeqNh8O55+92wwBCHeCJE3K5f+gW88s+CqKg4OT8Cwu6N/Ol8kt3gdI615N
BoClGuC8vpIIT7uQ5Yt60mRHGCVDfEDTAg5UoxufohzO0vdsNYfMr5z3hEVaUWVT
MPIlXwnaigT469ve4SLi23K+CSx25e+VDmycz5jIWgrwLWzEmA/+Ekh3ijit6Adh
2rW5qoZ2F4q/CeIshV55oNfBIWa7cQrPQOH+JzgQZWCKiDT+UY/A9bzTA2Y+dxju
-----END CERTIFICATE-----
