Certificate:
    Data:
        Version: 3 (0x2)
        Serial Number: 4097 (0x1001)
        Signature Algorithm: sha256WithRSAEncryption
        Issuer: C=US, ST=CA, L=San Jose, O=Apigee, OU=Eng, CN=root
        Validity
            Not Before: Jan  8 19:33:46 2016 GMT
            Not After : Jan  3 19:33:46 2036 GMT
        Subject: C=US, ST=CA, O=Apigee, OU=Eng, CN=inter2
        Subject Public Key Info:
            Public Key Algorithm: rsaEncryption
            RSA Public Key: (4096 bit)
                Modulus (4096 bit):
                    00:a8:b2:4c:39:38:80:d2:bd:8f:0d:53:92:c2:61:
                    97:6e:3a:ce:28:6b:13:b3:0c:c6:63:56:20:68:19:
                    d2:f8:09:9f:f5:32:d0:3c:3b:77:80:a5:26:26:57:
                    da:f5:6b:33:dc:96:75:e4:58:a0:88:2b:32:f5:ae:
                    04:75:96:2a:bb:91:08:d3:22:25:5f:ca:34:f1:1f:
                    ac:7d:a8:84:b5:4d:51:05:69:47:f7:0d:f8:4d:15:
                    61:92:fc:14:fe:e6:5b:10:e5:f9:77:11:03:cd:35:
                    e2:0f:82:06:7a:47:ee:ce:f9:1f:e5:23:46:d7:8f:
                    a9:39:a2:6d:76:29:38:ff:72:68:c1:30:db:8b:27:
                    f1:ed:9a:a6:08:34:94:55:bb:63:ba:4a:f4:28:85:
                    fd:80:8e:9d:1f:6f:5d:c9:6f:7a:4f:2c:da:80:ce:
                    6b:5e:0e:d7:ae:75:2a:79:99:b1:2e:8f:8b:ad:ff:
                    98:d3:0f:10:8c:d8:ec:0f:7d:52:19:e7:e9:7b:be:
                    c6:e3:1c:1e:a3:f2:10:f7:1e:7e:9f:85:ac:98:ae:
                    49:34:dd:3f:d3:45:c7:2f:5c:f5:5c:14:21:15:04:
                    c8:57:8c:93:6f:bb:e8:d7:c4:7d:ac:c4:5c:a1:22:
                    c8:0d:9c:bc:f1:bf:aa:8e:6a:f1:b8:61:ce:cc:d0:
                    25:2e:f8:09:92:dc:63:4e:65:f9:a8:84:3f:92:c0:
                    81:53:cb:4c:5a:07:0d:bb:60:cf:44:7b:51:af:84:
                    79:df:00:17:37:e4:24:6e:0a:a9:0d:90:50:5f:f1:
                    4c:3e:ea:7a:ac:c2:9f:c7:ef:92:90:97:77:04:a0:
                    19:48:64:44:49:5c:cf:8a:73:b0:57:95:f1:ae:2a:
                    b6:d1:c6:05:1e:38:9d:0e:ae:15:6d:02:67:cc:07:
                    29:df:7e:57:fa:c9:7c:84:dd:e7:a4:2b:b4:2e:30:
                    cb:42:6d:89:9d:00:39:78:fc:44:24:b2:b4:d5:59:
                    38:59:3b:ec:a1:86:87:1d:29:a9:b7:df:e1:8c:b0:
                    88:14:7f:74:b6:8c:0e:46:e5:26:94:cd:8f:71:49:
                    58:d7:0f:ac:8a:c2:4c:54:9a:b5:f3:e4:41:04:c8:
                    4b:f1:b4:50:71:bf:cc:60:1e:61:79:18:3c:ea:57:
                    c9:c4:28:57:ac:21:e5:3e:a0:12:b1:31:c9:67:f1:
                    1d:35:dd:ee:e2:08:fd:85:e2:9c:84:e8:c9:0f:67:
                    be:38:31:35:0d:ee:d4:99:df:1c:6a:62:52:a3:56:
                    18:e1:98:83:32:1f:19:46:56:48:ca:e9:49:04:ba:
                    94:bc:ca:b9:77:f9:2c:c0:14:73:86:d7:b4:87:ec:
                    d0:4c:7f
                Exponent: 65537 (0x10001)
        X509v3 extensions:
            X509v3 Subject Key Identifier: 
                79:F6:EE:A6:06:D6:90:AC:AF:B3:4C:05:A3:8B:A6:4D:8A:75:AC:47
            X509v3 Authority Key Identifier: 
                keyid:BE:F2:56:54:E7:8D:81:51:A6:EA:52:6D:C5:67:EF:FD:AC:83:43:07

            X509v3 Basic Constraints: critical
                CA:TRUE, pathlen:0
            X509v3 Key Usage: critical
                Digital Signature, Certificate Sign, CRL Sign
    Signature Algorithm: sha256WithRSAEncryption
        07:a9:87:60:18:4c:a0:3c:27:fb:cc:51:00:c5:9f:4f:72:d3:
        86:02:de:a2:6e:7d:05:40:41:f2:fd:04:14:a5:1d:ab:e7:f6:
        68:3a:7c:a4:fe:1c:07:24:06:ad:c9:eb:22:4d:49:f7:2a:01:
        08:bc:79:7b:a8:bf:fd:84:b9:87:17:4a:e9:4c:ad:1b:5d:4b:
        1a:4e:3b:51:31:ca:ce:e8:c1:30:cb:d3:29:ac:59:50:cc:e3:
        d8:6b:79:9a:dc:48:9e:9c:cc:2b:14:3a:ac:6a:d3:38:05:d8:
        95:2a:c9:f5:02:34:25:e0:b4:01:dc:55:52:61:3e:67:de:20:
        66:da:84:a6:73:a5:8c:1f:1f:da:e6:c4:5b:34:01:5e:96:47:
        bd:86:55:63:76:9d:21:12:c4:e1:b3:f2:4c:1b:a7:22:77:ad:
        cb:45:b9:c7:ae:6b:ca:f3:e3:f9:0a:db:b3:64:c8:a1:6a:5c:
        c4:a3:0f:be:8c:4d:1d:71:7b:fa:0f:98:f4:e7:cd:ea:44:c6:
        51:1a:d3:8d:7b:99:a5:db:63:fa:c6:12:7f:fe:6e:dc:0f:36:
        c5:19:b4:de:83:84:54:49:ce:4b:bd:79:26:24:6a:55:aa:77:
        54:a4:17:df:6d:07:86:bd:10:5a:cc:eb:cf:f1:89:a0:91:2b:
        7d:03:ae:60:be:8b:1a:63:32:50:2a:86:01:40:26:5d:dc:59:
        85:45:a1:a1:e2:fc:59:75:3d:7a:12:c8:6b:ae:9b:05:4c:77:
        53:fc:c7:45:88:20:4e:d0:43:96:50:02:ef:1a:f9:96:94:11:
        79:ce:82:3d:cc:1d:ac:0b:9b:0e:a6:94:4a:7e:0b:76:f8:16:
        d0:1b:9e:f7:4f:69:63:ee:49:23:cf:e1:7a:79:a4:e4:04:d2:
        8e:13:65:87:f1:72:de:63:d2:67:3f:85:c4:9c:06:1b:c8:3f:
        65:c4:47:06:3f:fe:53:47:d7:f8:67:89:4a:ea:78:65:7d:75:
        04:52:f3:eb:dc:fb:5a:31:4a:18:ed:b1:c7:44:92:90:2d:4c:
        95:c6:35:cb:6b:d2:2b:8c:f2:8e:05:c8:d4:32:9c:fb:b6:bf:
        25:82:c0:0e:41:98:fa:a3:cd:56:78:19:72:7e:01:50:30:0d:
        e2:5f:0f:55:bd:a7:a7:df:39:9a:8c:31:04:a1:a7:6f:17:e2:
        5d:ea:87:6d:d4:62:5c:68:0c:6f:36:6b:c8:51:df:9e:a4:b5:
        16:e5:86:fb:ed:f4:bc:a3:c8:c5:d8:16:c1:ca:6d:a4:be:d7:
        63:69:b6:0b:85:cd:1d:c0:40:63:c0:4f:33:0c:9d:a9:5d:22:
        c9:17:88:a4:f9:fd:4f:de
-----BEGIN CERTIFICATE-----
MIIFhzCCA2+gAwIBAgICEAEwDQYJKoZIhvcNAQELBQAwWzELMAkGA1UEBhMCVVMx
CzAJBgNVBAgMAkNBMREwDwYDVQQHDAhTYW4gSm9zZTEPMA0GA1UECgwGQXBpZ2Vl
MQwwCgYDVQQLDANFbmcxDTALBgNVBAMMBHJvb3QwHhcNMTYwMTA4MTkzMzQ2WhcN
MzYwMTAzMTkzMzQ2WjBKMQswCQYDVQQGEwJVUzELMAkGA1UECAwCQ0ExDzANBgNV
BAoMBkFwaWdlZTEMMAoGA1UECwwDRW5nMQ8wDQYDVQQDDAZpbnRlcjIwggIiMA0G
CSqGSIb3DQEBAQUAA4ICDwAwggIKAoICAQCoskw5OIDSvY8NU5LCYZduOs4oaxOz
DMZjViBoGdL4CZ/1MtA8O3eApSYmV9r1azPclnXkWKCIKzL1rgR1liq7kQjTIiVf
yjTxH6x9qIS1TVEFaUf3DfhNFWGS/BT+5lsQ5fl3EQPNNeIPggZ6R+7O+R/lI0bX
j6k5om12KTj/cmjBMNuLJ/HtmqYINJRVu2O6SvQohf2Ajp0fb13Jb3pPLNqAzmte
DteudSp5mbEuj4ut/5jTDxCM2OwPfVIZ5+l7vsbjHB6j8hD3Hn6fhayYrkk03T/T
RccvXPVcFCEVBMhXjJNvu+jXxH2sxFyhIsgNnLzxv6qOavG4Yc7M0CUu+AmS3GNO
ZfmohD+SwIFTy0xaBw27YM9Ee1GvhHnfABc35CRuCqkNkFBf8Uw+6nqswp/H75KQ
l3cEoBlIZERJXM+Kc7BXlfGuKrbRxgUeOJ0OrhVtAmfMBynfflf6yXyE3eekK7Qu
MMtCbYmdADl4/EQksrTVWThZO+yhhocdKam33+GMsIgUf3S2jA5G5SaUzY9xSVjX
D6yKwkxUmrXz5EEEyEvxtFBxv8xgHmF5GDzqV8nEKFesIeU+oBKxMcln8R013e7i
CP2F4pyE6MkPZ744MTUN7tSZ3xxqYlKjVhjhmIMyHxlGVkjK6UkEupS8yrl3+SzA
FHOG17SH7NBMfwIDAQABo2YwZDAdBgNVHQ4EFgQUefbupgbWkKyvs0wFo4umTYp1
rEcwHwYDVR0jBBgwFoAUvvJWVOeNgVGm6lJtxWfv/ayDQwcwEgYDVR0TAQH/BAgw
BgEB/wIBADAOBgNVHQ8BAf8EBAMCAYYwDQYJKoZIhvcNAQELBQADggIBAAeph2AY
TKA8J/vMUQDFn09y04YC3qJufQVAQfL9BBSlHavn9mg6fKT+HAckBq3J6yJNSfcq
AQi8eXuov/2EuYcXSulMrRtdSxpOO1Exys7owTDL0ymsWVDM49hreZrcSJ6czCsU
Oqxq0zgF2JUqyfUCNCXgtAHcVVJhPmfeIGbahKZzpYwfH9rmxFs0AV6WR72GVWN2
nSESxOGz8kwbpyJ3rctFuceua8rz4/kK27NkyKFqXMSjD76MTR1xe/oPmPTnzepE
xlEa0417maXbY/rGEn/+btwPNsUZtN6DhFRJzku9eSYkalWqd1SkF99tB4a9EFrM
68/xiaCRK30DrmC+ixpjMlAqhgFAJl3cWYVFoaHi/Fl1PXoSyGuumwVMd1P8x0WI
IE7QQ5ZQAu8a+ZaUEXnOgj3MHawLmw6mlEp+C3b4FtAbnvdPaWPuSSPP4Xp5pOQE
0o4TZYfxct5j0mc/hcScBhvIP2XERwY//lNH1/hniUrqeGV9dQRS8+vc+1oxShjt
scdEkpAtTJXGNctr0iuM8o4FyNQynPu2vyWCwA5BmPqjzVZ4GXJ+AVAwDeJfD1W9
p6ffOZqMMQShp28X4l3qh23UYlxoDG82a8hR356ktRblhvvt9LyjyMXYFsHKbaS+
12NptguFzR3AQGPATzMMnaldIskXiKT5/U/e
-----END CERTIFICATE-----
