Certificate:
    Data:
        Version: 3 (0x2)
        Serial Number: 4096 (0x1000)
        Signature Algorithm: sha256WithRSAEncryption
        Issuer: C=US, ST=CA, L=San Jose, O=Apigee, OU=Eng, CN=root
        Validity
            Not Before: Jan  8 19:28:57 2016 GMT
            Not After : Jan  3 19:28:57 2036 GMT
        Subject: C=US, ST=CA, O=Apigee, OU=Eng, CN=inter1
        Subject Public Key Info:
            Public Key Algorithm: rsaEncryption
            RSA Public Key: (4096 bit)
                Modulus (4096 bit):
                    00:b6:c8:33:32:65:b6:9f:51:86:fb:72:4a:f6:86:
                    fe:f1:73:7e:8a:62:76:c6:8a:21:71:42:b3:7e:5b:
                    31:f6:de:67:f2:7e:70:7b:a6:79:5f:c2:11:0e:8b:
                    c5:c9:ac:35:1f:5e:ff:c4:82:2c:9b:35:93:66:bf:
                    47:68:ff:18:c0:ab:1f:77:a8:9e:0d:fc:b1:a7:a5:
                    df:fe:ce:0f:5a:95:2f:8b:7f:fe:2d:48:44:f4:40:
                    d1:3b:04:28:0a:e9:b7:1d:2f:65:f7:a3:d1:d2:1e:
                    11:e3:04:ea:cd:d9:4f:c8:e2:dc:c7:c3:c3:85:0a:
                    09:5f:a7:ee:2e:32:1b:ec:0b:14:66:cb:2e:c6:7c:
                    b0:ed:87:7a:c8:41:67:7a:aa:6a:d0:cd:41:49:d6:
                    53:86:3d:d8:fa:89:0e:6d:50:3c:f0:ee:36:cf:3c:
                    de:ac:f5:a9:ae:d0:d7:97:ca:9d:fd:c3:dc:bd:ea:
                    69:98:bc:c0:ac:09:f3:e3:0e:3a:4c:01:7a:ef:df:
                    e7:42:5a:ef:74:8f:14:df:53:45:a2:77:1a:7c:a6:
                    63:45:d4:fa:09:6b:a1:6e:17:19:fe:4e:aa:06:c1:
                    ee:9f:70:90:0e:34:d1:07:08:79:a9:d8:2e:01:c8:
                    b9:fa:b7:4a:a9:20:2a:73:a8:ec:57:8d:7d:4f:58:
                    84:ab:d6:12:e1:b4:21:00:a5:60:22:a4:b7:49:b1:
                    af:02:54:a9:71:2a:83:36:1f:37:79:c3:ff:4f:9e:
                    8d:31:e0:9f:e6:55:dc:b9:62:59:1a:db:49:e9:2c:
                    37:aa:e4:87:7e:ec:c2:70:02:e6:32:e8:6e:a3:aa:
                    a9:7d:06:85:0b:56:54:b3:fa:76:ff:d0:10:97:4e:
                    13:54:00:8b:37:e6:d7:6f:55:7a:56:f5:01:28:1e:
                    22:5f:49:ef:1e:d7:f4:66:50:f2:ed:13:54:08:8e:
                    8f:9a:4e:fa:f2:ea:f7:d0:bc:d4:d6:56:d1:c0:a2:
                    cf:ec:d3:ff:45:89:c9:2b:48:c4:e1:33:93:99:59:
                    8c:2c:d1:22:d4:20:07:d0:06:b3:c4:50:80:b6:d5:
                    58:b5:38:58:12:7f:fa:5b:19:a7:32:59:99:a6:d4:
                    05:01:f4:59:23:ac:c3:6f:30:80:4b:b1:f3:08:2e:
                    3e:56:54:44:35:33:5c:57:d8:90:83:57:c7:13:31:
                    6d:ac:8d:bc:7d:d1:87:05:82:e1:5f:c1:75:3a:5a:
                    23:36:10:a7:87:d4:d7:1b:b0:52:d0:91:53:9e:7e:
                    26:98:ae:80:30:04:e0:97:f4:37:a0:cf:c6:40:9e:
                    22:1d:e3:74:e5:ac:1d:88:f2:dc:cd:8c:0a:01:48:
                    44:6f:cb
                Exponent: 65537 (0x10001)
        X509v3 extensions:
            X509v3 Subject Key Identifier: 
                8A:9D:BE:EB:0E:A9:F7:F1:08:66:08:0C:A7:E3:C4:40:E8:05:5B:F7
            X509v3 Authority Key Identifier: 
                keyid:BE:F2:56:54:E7:8D:81:51:A6:EA:52:6D:C5:67:EF:FD:AC:83:43:07

            X509v3 Basic Constraints: critical
                CA:TRUE, pathlen:0
            X509v3 Key Usage: critical
                Digital Signature, Certificate Sign, CRL Sign
    Signature Algorithm: sha256WithRSAEncryption
        66:18:f2:53:2a:a9:9c:ee:16:3f:dc:e4:14:c5:b7:66:32:6a:
        bf:2e:b0:39:43:a7:14:8b:52:80:54:ed:7a:a1:03:2f:68:b5:
        84:fe:2a:e6:27:ef:4a:89:3c:8b:0b:2c:5b:d3:9c:01:7e:55:
        66:80:4a:e5:a6:f8:b5:f1:cb:cc:78:73:b8:ad:36:e2:44:f9:
        bc:e7:89:15:ff:04:f1:8e:2f:98:f3:04:0e:c4:a6:a5:ad:7a:
        04:f9:03:e5:57:82:08:5a:f4:b4:07:d4:4b:ae:27:f6:24:77:
        34:1a:9f:a8:e5:fa:e2:36:51:07:60:d6:49:03:4b:8b:55:88:
        87:46:14:7d:48:7c:a7:5b:90:d5:9c:62:1f:50:22:13:01:64:
        94:e1:df:bc:c5:85:14:7b:d3:2e:50:4e:96:f1:9e:5f:a6:03:
        d3:d8:03:66:79:22:b8:8d:a7:bf:3b:8a:54:f8:7e:a2:b0:5d:
        4b:b3:cf:6b:09:38:c1:4f:08:b7:f4:d9:35:03:b3:4d:8d:66:
        bf:de:eb:f3:ca:ee:94:c8:af:aa:4a:27:6c:ee:c2:f7:de:e8:
        9c:fe:d2:f2:84:dd:25:74:56:92:31:72:da:cd:24:91:6f:7e:
        6c:62:0a:d2:de:05:3e:f2:3b:54:a3:3a:2e:74:83:37:77:55:
        36:22:0f:83:39:bd:ec:29:56:48:97:e5:6a:ca:ac:21:e5:92:
        ea:c9:e3:8e:38:9e:ef:38:28:13:8e:6e:2e:69:ed:0a:15:f5:
        51:5a:5a:61:8c:93:64:30:58:0b:50:18:e0:7d:c4:ec:2f:be:
        62:68:f7:6a:64:37:d6:fd:05:fb:74:d8:ff:0f:ed:df:48:97:
        cd:75:d2:de:ee:0d:f7:f2:b4:9d:ec:7f:d2:9d:71:13:df:2b:
        3c:e8:75:c3:3d:9f:2d:03:90:c1:38:ea:1a:09:59:1c:6b:e9:
        17:a2:d0:5a:e1:90:45:7e:d2:26:f4:ba:6c:5c:84:e7:f5:45:
        50:73:cd:7e:33:50:0e:77:c7:ec:1e:74:29:39:a3:6a:1f:ff:
        cd:7d:8e:ee:f2:b5:1a:f4:f3:12:63:53:8b:ec:57:ca:68:da:
        95:de:73:b7:dd:7b:a9:29:68:22:3f:fa:12:29:3b:10:79:70:
        e1:b2:f3:c2:19:91:d7:d0:f9:de:76:3c:b9:50:37:0e:e4:a4:
        20:b6:1f:38:23:87:44:01:f0:35:81:a2:31:2b:60:cf:c4:c7:
        a2:cc:58:78:b1:a0:40:24:e6:ba:dc:47:8d:20:d4:1b:35:cd:
        96:cb:c6:1a:a2:25:17:c3:55:66:9b:b6:42:6a:ab:d0:ae:d0:
        cb:4d:37:f1:70:5a:0f:1b
-----BEGIN CERTIFICATE-----
MIIFhzCCA2+gAwIBAgICEAAwDQYJKoZIhvcNAQELBQAwWzELMAkGA1UEBhMCVVMx
CzAJBgNVBAgMAkNBMREwDwYDVQQHDAhTYW4gSm9zZTEPMA0GA1UECgwGQXBpZ2Vl
MQwwCgYDVQQLDANFbmcxDTALBgNVBAMMBHJvb3QwHhcNMTYwMTA4MTkyODU3WhcN
MzYwMTAzMTkyODU3WjBKMQswCQYDVQQGEwJVUzELMAkGA1UECAwCQ0ExDzANBgNV
BAoMBkFwaWdlZTEMMAoGA1UECwwDRW5nMQ8wDQYDVQQDDAZpbnRlcjEwggIiMA0G
CSqGSIb3DQEBAQUAA4ICDwAwggIKAoICAQC2yDMyZbafUYb7ckr2hv7xc36KYnbG
iiFxQrN+WzH23mfyfnB7pnlfwhEOi8XJrDUfXv/EgiybNZNmv0do/xjAqx93qJ4N
/LGnpd/+zg9alS+Lf/4tSET0QNE7BCgK6bcdL2X3o9HSHhHjBOrN2U/I4tzHw8OF
Cglfp+4uMhvsCxRmyy7GfLDth3rIQWd6qmrQzUFJ1lOGPdj6iQ5tUDzw7jbPPN6s
9amu0NeXyp39w9y96mmYvMCsCfPjDjpMAXrv3+dCWu90jxTfU0Widxp8pmNF1PoJ
a6FuFxn+TqoGwe6fcJAONNEHCHmp2C4ByLn6t0qpICpzqOxXjX1PWISr1hLhtCEA
pWAipLdJsa8CVKlxKoM2Hzd5w/9Pno0x4J/mVdy5Ylka20npLDeq5Id+7MJwAuYy
6G6jqql9BoULVlSz+nb/0BCXThNUAIs35tdvVXpW9QEoHiJfSe8e1/RmUPLtE1QI
jo+aTvry6vfQvNTWVtHAos/s0/9FickrSMThM5OZWYws0SLUIAfQBrPEUIC21Vi1
OFgSf/pbGacyWZmm1AUB9FkjrMNvMIBLsfMILj5WVEQ1M1xX2JCDV8cTMW2sjbx9
0YcFguFfwXU6WiM2EKeH1NcbsFLQkVOefiaYroAwBOCX9Degz8ZAniId43TlrB2I
8tzNjAoBSERvywIDAQABo2YwZDAdBgNVHQ4EFgQUip2+6w6p9/EIZggMp+PEQOgF
W/cwHwYDVR0jBBgwFoAUvvJWVOeNgVGm6lJtxWfv/ayDQwcwEgYDVR0TAQH/BAgw
BgEB/wIBADAOBgNVHQ8BAf8EBAMCAYYwDQYJKoZIhvcNAQELBQADggIBAGYY8lMq
qZzuFj/c5BTFt2Yyar8usDlDpxSLUoBU7XqhAy9otYT+KuYn70qJPIsLLFvTnAF+
VWaASuWm+LXxy8x4c7itNuJE+bzniRX/BPGOL5jzBA7EpqWtegT5A+VXggha9LQH
1EuuJ/YkdzQan6jl+uI2UQdg1kkDS4tViIdGFH1IfKdbkNWcYh9QIhMBZJTh37zF
hRR70y5QTpbxnl+mA9PYA2Z5IriNp787ilT4fqKwXUuzz2sJOMFPCLf02TUDs02N
Zr/e6/PK7pTIr6pKJ2zuwvfe6Jz+0vKE3SV0VpIxctrNJJFvfmxiCtLeBT7yO1Sj
Oi50gzd3VTYiD4M5vewpVkiX5WrKrCHlkurJ4444nu84KBOObi5p7QoV9VFaWmGM
k2QwWAtQGOB9xOwvvmJo92pkN9b9Bft02P8P7d9Il8110t7uDffytJ3sf9KdcRPf
KzzodcM9ny0DkME46hoJWRxr6Rei0FrhkEV+0ib0umxchOf1RVBzzX4zUA53x+we
dCk5o2of/819ju7ytRr08xJjU4vsV8po2pXec7fde6kpaCI/+hIpOxB5cOGy88IZ
kdfQ+d52PLlQNw7kpCC2Hzgjh0QB8DWBojErYM/Ex6LMWHixoEAk5rrcR40g1Bs1
zZbLxhqiJRfDVWabtkJqq9Cu0MtNN/FwWg8b
-----END CERTIFICATE-----
