Certificate:
    Data:
        Version: 3 (0x2)
        Serial Number: 4096 (0x1000)
        Signature Algorithm: sha256WithRSAEncryption
        Issuer: C=US, ST=CA, O=Apigee, OU=Eng, CN=inter2
        Validity
            Not Before: Jan  8 19:40:41 2016 GMT
            Not After : Jan  5 19:40:41 2026 GMT
        Subject: C=US, ST=CA, L=San Jose, O=Apigee, OU=Eng, CN=localhost
        Subject Public Key Info:
            Public Key Algorithm: rsaEncryption
            RSA Public Key: (2048 bit)
                Modulus (2048 bit):
                    00:a9:e3:0f:54:3e:1e:1f:88:f6:36:f6:3f:b1:16:
                    15:eb:f5:a5:d7:37:99:81:04:7d:bb:42:6b:6d:b4:
                    23:02:99:29:95:99:93:93:bb:23:9b:7c:86:4d:83:
                    21:45:5a:ff:9c:4d:b9:7e:ce:6f:08:44:94:c1:43:
                    0e:e2:22:0f:a3:48:8a:6a:cc:26:8f:cc:2f:1e:99:
                    5c:68:a8:b4:79:e5:77:34:96:74:4f:3b:6d:ee:d5:
                    62:87:1c:2d:7e:ce:4b:79:c6:77:3e:61:cb:8e:37:
                    03:66:e7:76:6f:0b:bc:d2:be:8a:88:7e:aa:49:10:
                    6e:41:55:17:f0:85:ee:1b:f5:41:de:dc:c5:6b:f0:
                    0c:64:e2:9f:51:87:7f:8f:72:cb:8a:d8:63:3d:e9:
                    36:5a:08:c9:d8:08:ec:0d:7f:bf:e2:06:4b:f3:83:
                    1a:f9:dc:17:94:c2:6b:62:75:91:30:9f:ea:81:f4:
                    dc:30:c3:0f:18:51:99:12:c0:24:f1:e0:1c:46:8e:
                    80:f6:d2:04:96:65:c0:71:92:3e:42:b6:c7:2b:ac:
                    a3:03:88:ba:5d:b9:b1:f3:61:1e:97:6f:ae:79:5a:
                    8d:37:86:06:05:a7:c7:d0:aa:a3:f4:32:ab:f2:29:
                    26:20:4c:b1:66:67:2d:55:28:f2:55:ba:4a:d3:54:
                    4f:dd
                Exponent: 65537 (0x10001)
        X509v3 extensions:
            X509v3 Basic Constraints: 
                CA:FALSE
            Netscape Cert Type: 
                SSL Server
            Netscape Comment: 
                OpenSSL Generated Server Certificate
            X509v3 Subject Key Identifier: 
                9E:3F:A1:EF:49:6F:49:46:BA:94:53:11:3F:FB:B3:CF:4B:32:36:9E
            X509v3 Authority Key Identifier: 
                keyid:79:F6:EE:A6:06:D6:90:AC:AF:B3:4C:05:A3:8B:A6:4D:8A:75:AC:47
                DirName:/C=US/ST=CA/L=San Jose/O=Apigee/OU=Eng/CN=root
                serial:10:01

            X509v3 Key Usage: critical
                Digital Signature, Key Encipherment
            X509v3 Extended Key Usage: 
                TLS Web Server Authentication
    Signature Algorithm: sha256WithRSAEncryption
        06:57:42:ac:7e:1b:bf:f0:ed:89:b8:77:ce:83:d1:e1:1b:6d:
        67:65:fc:f8:2d:46:2a:62:d4:8e:6e:6b:16:05:d6:93:94:96:
        17:0f:96:2e:21:31:45:76:71:53:1f:5f:b0:91:40:f3:cd:e1:
        f2:9a:d5:ec:fa:ed:3b:72:73:07:69:33:aa:9e:1a:d4:11:87:
        d1:57:a8:06:7a:e7:4b:a7:43:22:68:70:f2:ca:82:7c:dc:0f:
        7e:73:05:25:9e:83:63:fd:3a:7a:70:46:ea:42:4c:4f:8c:0a:
        e7:d2:98:ef:60:c7:c0:6f:75:9f:8c:4a:74:4f:78:d9:2b:43:
        1f:6a:6e:94:46:c3:fa:50:0d:1a:d9:cc:ec:63:0a:e1:cd:a1:
        5a:bb:3a:9b:4e:8e:3e:20:9d:c2:12:85:1d:64:ee:d6:bd:65:
        3f:87:c2:18:a3:c5:26:a5:69:a8:2d:8b:b9:74:78:47:5a:3e:
        05:91:97:57:da:29:81:38:46:ea:a2:72:a5:f2:a8:bd:72:72:
        e0:24:f9:78:d8:99:4a:ce:60:f6:07:f5:6a:c2:46:f2:eb:29:
        2c:ff:c2:e6:8a:41:40:51:7f:02:95:32:f4:00:ad:f6:0c:d0:
        27:b7:ba:9e:01:e1:fa:ca:d2:a1:6e:16:89:bf:3d:49:7e:7c:
        64:19:18:39:71:74:2b:c1:90:1e:d5:bb:70:8a:18:ef:b0:02:
        3d:1b:0c:1d:e7:b7:7c:d7:77:9f:9d:4e:c1:8a:c5:9f:cb:bf:
        d1:ba:6f:e3:84:e3:1c:7f:a2:3d:8a:4e:c3:77:76:60:26:99:
        c0:fb:61:61:a1:11:0a:61:92:4d:47:89:1b:37:96:6c:b9:99:
        fa:00:dc:a8:de:de:fd:48:09:ff:4b:29:95:31:2b:54:df:69:
        e7:e4:6c:90:cc:1c:dd:b5:18:c2:d9:ee:43:07:60:68:40:5c:
        1a:3b:eb:40:62:91:0e:04:48:df:25:64:97:70:5d:40:a4:ff:
        b0:8e:76:ef:44:3e:24:a0:c0:20:82:96:80:f9:a2:f5:09:b3:
        a7:f4:11:70:c7:84:04:9b:30:9a:77:1d:c5:f9:89:7b:f6:c2:
        d6:5f:f8:40:fe:9a:e6:ad:17:e1:9f:e0:e9:ba:04:4e:f8:b4:
        8a:74:d3:5c:46:9e:61:bf:4a:64:f4:b8:98:f8:ca:5b:b2:e1:
        42:ae:6b:a4:6a:d7:53:0e:5b:fe:04:70:13:d7:04:1a:87:bf:
        be:1a:2a:89:44:a4:10:00:8d:89:e1:e2:48:48:f5:34:3f:f6:
        2e:18:8c:74:44:f6:51:d6:db:78:61:aa:7e:d6:9b:b2:f8:f4:
        0d:1d:2e:35:f7:6f:b1:e0
-----BEGIN CERTIFICATE-----
MIIFSjCCAzKgAwIBAgICEAAwDQYJKoZIhvcNAQELBQAwSjELMAkGA1UEBhMCVVMx
CzAJBgNVBAgMAkNBMQ8wDQYDVQQKDAZBcGlnZWUxDDAKBgNVBAsMA0VuZzEPMA0G
A1UEAwwGaW50ZXIyMB4XDTE2MDEwODE5NDA0MVoXDTI2MDEwNTE5NDA0MVowYDEL
MAkGA1UEBhMCVVMxCzAJBgNVBAgMAkNBMREwDwYDVQQHDAhTYW4gSm9zZTEPMA0G
A1UECgwGQXBpZ2VlMQwwCgYDVQQLDANFbmcxEjAQBgNVBAMMCWxvY2FsaG9zdDCC
ASIwDQYJKoZIhvcNAQEBBQADggEPADCCAQoCggEBAKnjD1Q+Hh+I9jb2P7EWFev1
pdc3mYEEfbtCa220IwKZKZWZk5O7I5t8hk2DIUVa/5xNuX7ObwhElMFDDuIiD6NI
imrMJo/MLx6ZXGiotHnldzSWdE87be7VYoccLX7OS3nGdz5hy443A2bndm8LvNK+
ioh+qkkQbkFVF/CF7hv1Qd7cxWvwDGTin1GHf49yy4rYYz3pNloIydgI7A1/v+IG
S/ODGvncF5TCa2J1kTCf6oH03DDDDxhRmRLAJPHgHEaOgPbSBJZlwHGSPkK2xyus
owOIul25sfNhHpdvrnlajTeGBgWnx9Cqo/Qyq/IpJiBMsWZnLVUo8lW6StNUT90C
AwEAAaOCASIwggEeMAkGA1UdEwQCMAAwEQYJYIZIAYb4QgEBBAQDAgZAMDMGCWCG
SAGG+EIBDQQmFiRPcGVuU1NMIEdlbmVyYXRlZCBTZXJ2ZXIgQ2VydGlmaWNhdGUw
HQYDVR0OBBYEFJ4/oe9Jb0lGupRTET/7s89LMjaeMIGEBgNVHSMEfTB7gBR59u6m
BtaQrK+zTAWji6ZNinWsR6FfpF0wWzELMAkGA1UEBhMCVVMxCzAJBgNVBAgMAkNB
MREwDwYDVQQHDAhTYW4gSm9zZTEPMA0GA1UECgwGQXBpZ2VlMQwwCgYDVQQLDANF
bmcxDTALBgNVBAMMBHJvb3SCAhABMA4GA1UdDwEB/wQEAwIFoDATBgNVHSUEDDAK
BggrBgEFBQcDATANBgkqhkiG9w0BAQsFAAOCAgEABldCrH4bv/Dtibh3zoPR4Rtt
Z2X8+C1GKmLUjm5rFgXWk5SWFw+WLiExRXZxUx9fsJFA883h8prV7PrtO3JzB2kz
qp4a1BGH0VeoBnrnS6dDImhw8sqCfNwPfnMFJZ6DY/06enBG6kJMT4wK59KY72DH
wG91n4xKdE942StDH2pulEbD+lANGtnM7GMK4c2hWrs6m06OPiCdwhKFHWTu1r1l
P4fCGKPFJqVpqC2LuXR4R1o+BZGXV9opgThG6qJypfKovXJy4CT5eNiZSs5g9gf1
asJG8uspLP/C5opBQFF/ApUy9ACt9gzQJ7e6ngHh+srSoW4Wib89SX58ZBkYOXF0
K8GQHtW7cIoY77ACPRsMHee3fNd3n51OwYrFn8u/0bpv44TjHH+iPYpOw3d2YCaZ
wPthYaERCmGSTUeJGzeWbLmZ+gDcqN7e/UgJ/0splTErVN9p5+RskMwc3bUYwtnu
QwdgaEBcGjvrQGKRDgRI3yVkl3BdQKT/sI5270Q+JKDAIIKWgPmi9Qmzp/QRcMeE
BJswmncdxfmJe/bC1l/4QP6a5q0X4Z/g6boETvi0inTTXEaeYb9KZPS4mPjKW7Lh
Qq5rpGrXUw5b/gRwE9cEGoe/vhoqiUSkEACNieHiSEj1ND/2LhiMdET2UdbbeGGq
ftabsvj0DR0uNfdvseA=
-----END CERTIFICATE-----
